target datalayout = "e-m:e-p270:32:32-p271:32:32-p272:64:64-i64:64-i128:128-f80:128-n8:16:32:64-S128"
target triple = "x86_64-pc-linux-gnu"

%struct.P9Req = type { ptr, ptr, i16, i64, i32, i64, i64, i64, i32 }
%struct.QVirtio9P = type { ptr, ptr }

; Function Attrs: nounwind sspstrong uwtable
define dso_local void @v9fs_req_wait_for_reply(ptr noundef %0, ptr noundef %1) #0 {
  %3 = alloca ptr, align 8
  %4 = alloca ptr, align 8
  %5 = alloca ptr, align 8
  store ptr %0, ptr %3, align 8
  store ptr %1, ptr %4, align 8
  call void @llvm.lifetime.start.p0(i64 8, ptr %5) #13
  %6 = load ptr, ptr %3, align 8
  %7 = getelementptr inbounds nuw %struct.P9Req, ptr %6, i32 0, i32 1
  %8 = load ptr, ptr %7, align 8
  store ptr %8, ptr %5, align 8
  %9 = load ptr, ptr %3, align 8
  %10 = getelementptr inbounds nuw %struct.P9Req, ptr %9, i32 0, i32 0
  %11 = load ptr, ptr %10, align 8
  %12 = load ptr, ptr %5, align 8
  %13 = getelementptr inbounds nuw %struct.QVirtio9P, ptr %12, i32 0, i32 0
  %14 = load ptr, ptr %13, align 8
  %15 = load ptr, ptr %5, align 8
  %16 = getelementptr inbounds nuw %struct.QVirtio9P, ptr %15, i32 0, i32 1
  %17 = load ptr, ptr %16, align 8
  %18 = load ptr, ptr %3, align 8
  %19 = getelementptr inbounds nuw %struct.P9Req, ptr %18, i32 0, i32 8
  %20 = load i32, ptr %19, align 8
  %21 = load ptr, ptr %4, align 8
  call void @qvirtio_wait_used_elem(ptr noundef %11, ptr noundef %14, ptr noundef %17, i32 noundef %20, ptr noundef %21, i64 noundef 10000000)
  call void @llvm.lifetime.end.p0(i64 8, ptr %5) #13
  ret void
}