; Function Attrs: nounwind sspstrong uwtable
define dso_local void @v9fs_req_wait_for_reply(ptr noundef readonly captures(none) %0, ptr noundef %1) local_unnamed_addr #1 {
  %3 = getelementptr inbounds nuw i8, ptr %0, i64 8
  %4 = load ptr, ptr %3, align 8
  %5 = load ptr, ptr %0, align 8
  %6 = load ptr, ptr %4, align 8
  %7 = getelementptr inbounds nuw i8, ptr %4, i64 8
  %8 = load ptr, ptr %7, align 8
  %9 = getelementptr inbounds nuw i8, ptr %0, i64 64
  %10 = load i32, ptr %9, align 8
  tail call void @qvirtio_wait_used_elem(ptr noundef %5, ptr noundef %6, ptr noundef %8, i32 noundef %10, ptr noundef %1, i64 noundef 10000000) #14
  ret void
}